target datalayout = "e-m:e-p270:32:32-p271:32:32-p272:64:64-i64:64-i128:128-f80:128-n8:16:32:64-S128"
target triple = "x86_64-pc-linux-gnu"

%union.ListCell = type { ptr }
%struct.PlannerInfo = type { i32, ptr, ptr, i32, ptr, ptr, ptr, ptr, i32, ptr, ptr, ptr, ptr, ptr, ptr, ptr, ptr, i32, ptr, ptr, ptr, ptr, ptr, i8, ptr, ptr, ptr, ptr, ptr, i32, ptr, ptr, ptr, ptr, ptr, ptr, ptr, i32, ptr, ptr, ptr, i32, ptr, ptr, ptr, ptr, ptr, ptr, [8 x ptr], [8 x ptr], ptr, ptr, ptr, ptr, ptr, ptr, ptr, double, double, double, i32, i8, i8, i8, i8, i8, i8, i8, i32, ptr, ptr, i32, i8, i8, i32, ptr, ptr, ptr, ptr, ptr, ptr, i8, ptr }
%struct.List = type { i32, i32, i32, ptr, [0 x %union.ListCell] }
%struct.SubPlan = type { %struct.Expr, i32, ptr, ptr, i32, ptr, i32, i32, i32, i8, i8, i8, ptr, ptr, ptr, double, double }
%struct.Expr = type { i32 }
%struct.PlannerGlobal = type { i32, ptr, ptr, ptr, ptr, ptr, ptr, ptr, ptr, ptr, ptr, ptr, ptr, ptr, ptr, ptr, ptr, i32, i32, i32, i8, i8, i8, i8, i8, ptr }
%struct.Node = type { i32 }
%struct.Plan = type { i32, i32, double, double, double, i32, i8, i8, i8, i32, ptr, ptr, ptr, ptr, ptr, ptr, ptr }
%struct.TargetEntry = type { %struct.Expr, ptr, i16, ptr, i32, i32, i16, i8 }
%struct.Param = type { %struct.Expr, i32, i32, i32, i32, i32, i32 }

@.str.4 = private unnamed_addr constant [12 x i8] c"InitPlan %d\00", align 1

; Function Attrs: inlinehint nounwind uwtable
define internal ptr @list_nth_cell(ptr noundef %0, i32 noundef %1) #5 {
  %3 = alloca ptr, align 8
  %4 = alloca i32, align 4
  store ptr %0, ptr %3, align 8
  store i32 %1, ptr %4, align 4
  %5 = load ptr, ptr %3, align 8
  %6 = getelementptr inbounds nuw %struct.List, ptr %5, i32 0, i32 3
  %7 = load ptr, ptr %6, align 8
  %8 = load i32, ptr %4, align 4
  %9 = sext i32 %8 to i64
  %10 = getelementptr inbounds %union.ListCell, ptr %7, i64 %9
  ret ptr %10
}

; Function Attrs: nounwind uwtable
define internal void @get_first_col_type(ptr noundef %0, ptr noundef %1, ptr noundef %2, ptr noundef %3) #0 {
  %5 = alloca ptr, align 8
  %6 = alloca ptr, align 8
  %7 = alloca ptr, align 8
  %8 = alloca ptr, align 8
  %9 = alloca ptr, align 8
  %10 = alloca i32, align 4
  store ptr %0, ptr %5, align 8
  store ptr %1, ptr %6, align 8
  store ptr %2, ptr %7, align 8
  store ptr %3, ptr %8, align 8
  %11 = load ptr, ptr %5, align 8
  %12 = getelementptr inbounds nuw %struct.Plan, ptr %11, i32 0, i32 10
  %13 = load ptr, ptr %12, align 8
  %14 = icmp ne ptr %13, null
  br i1 %14, label %15, label %45

15:                                               ; preds = %4
  call void @llvm.lifetime.start.p0(i64 8, ptr %9) #8
  %16 = load ptr, ptr %5, align 8
  %17 = getelementptr inbounds nuw %struct.Plan, ptr %16, i32 0, i32 10
  %18 = load ptr, ptr %17, align 8
  %19 = call ptr @list_nth_cell(ptr noundef %18, i32 noundef 0)
  %20 = load ptr, ptr %19, align 8
  store ptr %20, ptr %9, align 8
  %21 = load ptr, ptr %9, align 8
  %22 = getelementptr inbounds nuw %struct.TargetEntry, ptr %21, i32 0, i32 7
  %23 = load i8, ptr %22, align 2, !range !4, !noundef !5
  %24 = trunc i8 %23 to i1
  br i1 %24, label %41, label %25

25:                                               ; preds = %15
  %26 = load ptr, ptr %9, align 8
  %27 = getelementptr inbounds nuw %struct.TargetEntry, ptr %26, i32 0, i32 1
  %28 = load ptr, ptr %27, align 8
  %29 = call i32 @exprType(ptr noundef %28)
  %30 = load ptr, ptr %6, align 8
  store i32 %29, ptr %30, align 4
  %31 = load ptr, ptr %9, align 8
  %32 = getelementptr inbounds nuw %struct.TargetEntry, ptr %31, i32 0, i32 1
  %33 = load ptr, ptr %32, align 8
  %34 = call i32 @exprTypmod(ptr noundef %33)
  %35 = load ptr, ptr %7, align 8
  store i32 %34, ptr %35, align 4
  %36 = load ptr, ptr %9, align 8
  %37 = getelementptr inbounds nuw %struct.TargetEntry, ptr %36, i32 0, i32 1
  %38 = load ptr, ptr %37, align 8
  %39 = call i32 @exprCollation(ptr noundef %38)
  %40 = load ptr, ptr %8, align 8
  store i32 %39, ptr %40, align 4
  store i32 1, ptr %10, align 4
  br label %42

41:                                               ; preds = %15
  store i32 0, ptr %10, align 4
  br label %42

42:                                               ; preds = %41, %25
  call void @llvm.lifetime.end.p0(i64 8, ptr %9) #8
  %43 = load i32, ptr %10, align 4
  switch i32 %43, label %50 [
    i32 0, label %44
    i32 1, label %49
  ]

44:                                               ; preds = %42
  br label %45

45:                                               ; preds = %44, %4
  %46 = load ptr, ptr %6, align 8
  store i32 2278, ptr %46, align 4
  %47 = load ptr, ptr %7, align 8
  store i32 -1, ptr %47, align 4
  %48 = load ptr, ptr %8, align 8
  store i32 0, ptr %48, align 4
  br label %49

49:                                               ; preds = %45, %42
  ret void

50:                                               ; preds = %42
  unreachable
}

; Function Attrs: inlinehint nounwind uwtable
define internal i32 @list_length(ptr noundef %0) #5 {
  %2 = alloca ptr, align 8
  store ptr %0, ptr %2, align 8
  %3 = load ptr, ptr %2, align 8
  %4 = icmp ne ptr %3, null
  br i1 %4, label %5, label %9

5:                                                ; preds = %1
  %6 = load ptr, ptr %2, align 8
  %7 = getelementptr inbounds nuw %struct.List, ptr %6, i32 0, i32 1
  %8 = load i32, ptr %7, align 4
  br label %10

9:                                                ; preds = %1
  br label %10

10:                                               ; preds = %9, %5
  %11 = phi i32 [ %8, %5 ], [ 0, %9 ]
  ret i32 %11
}

; Function Attrs: inlinehint nounwind uwtable
define internal ptr @newNode(i64 noundef %0, i32 noundef %1) #5 {
  %3 = alloca i64, align 8
  %4 = alloca i32, align 4
  %5 = alloca ptr, align 8
  store i64 %0, ptr %3, align 8
  store i32 %1, ptr %4, align 4
  call void @llvm.lifetime.start.p0(i64 8, ptr %5) #8
  %6 = load i64, ptr %3, align 8
  %7 = call ptr @palloc0(i64 noundef %6)
  store ptr %7, ptr %5, align 8
  %8 = load i32, ptr %4, align 4
  %9 = load ptr, ptr %5, align 8
  %10 = getelementptr inbounds nuw %struct.Node, ptr %9, i32 0, i32 0
  store i32 %8, ptr %10, align 4
  %11 = load ptr, ptr %5, align 8
  call void @llvm.lifetime.end.p0(i64 8, ptr %5) #8
  ret ptr %11
}

; Function Attrs: nounwind uwtable
define dso_local void @SS_make_initplan_from_plan(ptr noundef %0, ptr noundef %1, ptr noundef %2, ptr noundef %3) #0 {
  %5 = alloca ptr, align 8
  %6 = alloca ptr, align 8
  %7 = alloca ptr, align 8
  %8 = alloca ptr, align 8
  %9 = alloca ptr, align 8
  %10 = alloca %union.ListCell, align 8
  store ptr %0, ptr %5, align 8
  store ptr %1, ptr %6, align 8
  store ptr %2, ptr %7, align 8
  store ptr %3, ptr %8, align 8
  call void @llvm.lifetime.start.p0(i64 8, ptr %9) #8
  %11 = load ptr, ptr %5, align 8
  %12 = getelementptr inbounds nuw %struct.PlannerInfo, ptr %11, i32 0, i32 2
  %13 = load ptr, ptr %12, align 8
  %14 = getelementptr inbounds nuw %struct.PlannerGlobal, ptr %13, i32 0, i32 2
  %15 = load ptr, ptr %14, align 8
  %16 = load ptr, ptr %7, align 8
  %17 = call ptr @lappend(ptr noundef %15, ptr noundef %16)
  %18 = load ptr, ptr %5, align 8
  %19 = getelementptr inbounds nuw %struct.PlannerInfo, ptr %18, i32 0, i32 2
  %20 = load ptr, ptr %19, align 8
  %21 = getelementptr inbounds nuw %struct.PlannerGlobal, ptr %20, i32 0, i32 2
  store ptr %17, ptr %21, align 8
  %22 = load ptr, ptr %5, align 8
  %23 = getelementptr inbounds nuw %struct.PlannerInfo, ptr %22, i32 0, i32 2
  %24 = load ptr, ptr %23, align 8
  %25 = getelementptr inbounds nuw %struct.PlannerGlobal, ptr %24, i32 0, i32 3
  %26 = load ptr, ptr %25, align 8
  %27 = call ptr @lappend(ptr noundef %26, ptr noundef null)
  %28 = load ptr, ptr %5, align 8
  %29 = getelementptr inbounds nuw %struct.PlannerInfo, ptr %28, i32 0, i32 2
  %30 = load ptr, ptr %29, align 8
  %31 = getelementptr inbounds nuw %struct.PlannerGlobal, ptr %30, i32 0, i32 3
  store ptr %27, ptr %31, align 8
  %32 = load ptr, ptr %5, align 8
  %33 = getelementptr inbounds nuw %struct.PlannerInfo, ptr %32, i32 0, i32 2
  %34 = load ptr, ptr %33, align 8
  %35 = getelementptr inbounds nuw %struct.PlannerGlobal, ptr %34, i32 0, i32 4
  %36 = load ptr, ptr %35, align 8
  %37 = load ptr, ptr %6, align 8
  %38 = call ptr @lappend(ptr noundef %36, ptr noundef %37)
  %39 = load ptr, ptr %5, align 8
  %40 = getelementptr inbounds nuw %struct.PlannerInfo, ptr %39, i32 0, i32 2
  %41 = load ptr, ptr %40, align 8
  %42 = getelementptr inbounds nuw %struct.PlannerGlobal, ptr %41, i32 0, i32 4
  store ptr %38, ptr %42, align 8
  %43 = call ptr @newNode(i64 noundef 96, i32 noundef 23)
  store ptr %43, ptr %9, align 8
  %44 = load ptr, ptr %9, align 8
  %45 = getelementptr inbounds nuw %struct.SubPlan, ptr %44, i32 0, i32 1
  store i32 4, ptr %45, align 4
  %46 = load ptr, ptr %5, align 8
  %47 = getelementptr inbounds nuw %struct.PlannerInfo, ptr %46, i32 0, i32 2
  %48 = load ptr, ptr %47, align 8
  %49 = getelementptr inbounds nuw %struct.PlannerGlobal, ptr %48, i32 0, i32 2
  %50 = load ptr, ptr %49, align 8
  %51 = call i32 @list_length(ptr noundef %50)
  %52 = load ptr, ptr %9, align 8
  %53 = getelementptr inbounds nuw %struct.SubPlan, ptr %52, i32 0, i32 4
  store i32 %51, ptr %53, align 8
  %54 = load ptr, ptr %9, align 8
  %55 = getelementptr inbounds nuw %struct.SubPlan, ptr %54, i32 0, i32 4
  %56 = load i32, ptr %55, align 8
  %57 = call ptr (ptr, ...) @psprintf(ptr noundef @.str.4, i32 noundef %56)
  %58 = load ptr, ptr %9, align 8
  %59 = getelementptr inbounds nuw %struct.SubPlan, ptr %58, i32 0, i32 5
  store ptr %57, ptr %59, align 8
  %60 = load ptr, ptr %7, align 8
  %61 = load ptr, ptr %9, align 8
  %62 = getelementptr inbounds nuw %struct.SubPlan, ptr %61, i32 0, i32 6
  %63 = load ptr, ptr %9, align 8
  %64 = getelementptr inbounds nuw %struct.SubPlan, ptr %63, i32 0, i32 7
  %65 = load ptr, ptr %9, align 8
  %66 = getelementptr inbounds nuw %struct.SubPlan, ptr %65, i32 0, i32 8
  call void @get_first_col_type(ptr noundef %60, ptr noundef %62, ptr noundef %64, ptr noundef %66)
  %67 = load ptr, ptr %7, align 8
  %68 = getelementptr inbounds nuw %struct.Plan, ptr %67, i32 0, i32 7
  %69 = load i8, ptr %68, align 1, !range !4, !noundef !5
  %70 = trunc i8 %69 to i1
  %71 = load ptr, ptr %9, align 8
  %72 = getelementptr inbounds nuw %struct.SubPlan, ptr %71, i32 0, i32 11
  %73 = zext i1 %70 to i8
  store i8 %73, ptr %72, align 2
  %74 = load ptr, ptr %8, align 8
  %75 = getelementptr inbounds nuw %struct.Param, ptr %74, i32 0, i32 2
  %76 = load i32, ptr %75, align 4
  store i32 %76, ptr %10, align 8
  %77 = getelementptr i8, ptr %10, i64 4
  call void @llvm.memset.p0.i64(ptr align 4 %77, i8 0, i64 4, i1 false)
  %78 = getelementptr inbounds nuw %union.ListCell, ptr %10, i32 0, i32 0
  %79 = load ptr, ptr %78, align 8
  %80 = call ptr @list_make1_impl(i32 noundef 470, ptr %79)
  %81 = load ptr, ptr %9, align 8
  %82 = getelementptr inbounds nuw %struct.SubPlan, ptr %81, i32 0, i32 12
  store ptr %80, ptr %82, align 8
  %83 = load ptr, ptr %5, align 8
  %84 = getelementptr inbounds nuw %struct.PlannerInfo, ptr %83, i32 0, i32 18
  %85 = load ptr, ptr %84, align 8
  %86 = load ptr, ptr %9, align 8
  %87 = call ptr @lappend(ptr noundef %85, ptr noundef %86)
  %88 = load ptr, ptr %5, align 8
  %89 = getelementptr inbounds nuw %struct.PlannerInfo, ptr %88, i32 0, i32 18
  store ptr %87, ptr %89, align 8
  %90 = load ptr, ptr %6, align 8
  %91 = load ptr, ptr %9, align 8
  %92 = load ptr, ptr %7, align 8
  call void @cost_subplan(ptr noundef %90, ptr noundef %91, ptr noundef %92)
  call void @llvm.lifetime.end.p0(i64 8, ptr %9) #8
  ret void
}