; Function Attrs: nounwind uwtable
define dso_local void @SS_make_initplan_from_plan(ptr noundef captures(none) %0, ptr noundef %1, ptr noundef %2, ptr noundef readonly captures(none) %3) local_unnamed_addr #0 {
  %5 = getelementptr inbounds nuw i8, ptr %0, i64 16
  %6 = load ptr, ptr %5, align 8
  %7 = getelementptr inbounds nuw i8, ptr %6, i64 16
  %8 = load ptr, ptr %7, align 8
  %9 = tail call ptr @lappend(ptr noundef %8, ptr noundef %2) #10
  %10 = load ptr, ptr %5, align 8
  %11 = getelementptr inbounds nuw i8, ptr %10, i64 16
  store ptr %9, ptr %11, align 8
  %12 = load ptr, ptr %5, align 8
  %13 = getelementptr inbounds nuw i8, ptr %12, i64 24
  %14 = load ptr, ptr %13, align 8
  %15 = tail call ptr @lappend(ptr noundef %14, ptr noundef null) #10
  %16 = load ptr, ptr %5, align 8
  %17 = getelementptr inbounds nuw i8, ptr %16, i64 24
  store ptr %15, ptr %17, align 8
  %18 = load ptr, ptr %5, align 8
  %19 = getelementptr inbounds nuw i8, ptr %18, i64 32
  %20 = load ptr, ptr %19, align 8
  %21 = tail call ptr @lappend(ptr noundef %20, ptr noundef %1) #10
  %22 = load ptr, ptr %5, align 8
  %23 = getelementptr inbounds nuw i8, ptr %22, i64 32
  store ptr %21, ptr %23, align 8
  %24 = tail call noundef ptr @palloc0(i64 noundef 96) #10
  store i32 23, ptr %24, align 4
  %25 = getelementptr inbounds nuw i8, ptr %24, i64 4
  store i32 4, ptr %25, align 4
  %26 = load ptr, ptr %5, align 8
  %27 = getelementptr inbounds nuw i8, ptr %26, i64 16
  %28 = load ptr, ptr %27, align 8
  %.not.i = icmp eq ptr %28, null
  br i1 %.not.i, label %list_length.exit, label %29

29:                                               ; preds = %4
  %30 = getelementptr inbounds nuw i8, ptr %28, i64 4
  %31 = load i32, ptr %30, align 4
  br label %list_length.exit

list_length.exit:                                 ; preds = %4, %29
  %32 = phi i32 [ %31, %29 ], [ 0, %4 ]
  %33 = getelementptr inbounds nuw i8, ptr %24, i64 24
  store i32 %32, ptr %33, align 8
  %34 = tail call ptr (ptr, ...) @psprintf(ptr noundef nonnull @.str.4, i32 noundef %32) #10
  %35 = getelementptr inbounds nuw i8, ptr %24, i64 32
  store ptr %34, ptr %35, align 8
  %36 = getelementptr inbounds nuw i8, ptr %24, i64 40
  %37 = getelementptr inbounds nuw i8, ptr %24, i64 44
  %38 = getelementptr i8, ptr %2, i64 48
  %.val = load ptr, ptr %38, align 8
  %.not.i27 = icmp eq ptr %.val, null
  br i1 %.not.i27, label %.thread.i, label %39

39:                                               ; preds = %list_length.exit
  %40 = getelementptr i8, ptr %.val, i64 16
  %.val.i = load ptr, ptr %40, align 8
  %41 = load ptr, ptr %.val.i, align 8
  %42 = getelementptr inbounds nuw i8, ptr %41, i64 42
  %43 = load i8, ptr %42, align 2, !range !4, !noundef !5
  %44 = trunc nuw i8 %43 to i1
  br i1 %44, label %.thread.i, label %45

45:                                               ; preds = %39
  %46 = getelementptr inbounds nuw i8, ptr %41, i64 8
  %47 = load ptr, ptr %46, align 8
  %48 = tail call i32 @exprType(ptr noundef %47) #10
  store i32 %48, ptr %36, align 4
  %49 = load ptr, ptr %46, align 8
  %50 = tail call i32 @exprTypmod(ptr noundef %49) #10
  store i32 %50, ptr %37, align 4
  %51 = load ptr, ptr %46, align 8
  %52 = tail call i32 @exprCollation(ptr noundef %51) #10
  br label %get_first_col_type.exit

.thread.i:                                        ; preds = %39, %list_length.exit
  store i32 2278, ptr %36, align 4
  store i32 -1, ptr %37, align 4
  br label %get_first_col_type.exit

get_first_col_type.exit:                          ; preds = %45, %.thread.i
  %storemerge.i = phi i32 [ %52, %45 ], [ 0, %.thread.i ]
  %53 = getelementptr inbounds nuw i8, ptr %24, i64 48
  store i32 %storemerge.i, ptr %53, align 4
  %54 = getelementptr inbounds nuw i8, ptr %2, i64 37
  %55 = load i8, ptr %54, align 1, !range !4, !noundef !5
  %56 = getelementptr inbounds nuw i8, ptr %24, i64 54
  store i8 %55, ptr %56, align 2
  %57 = getelementptr inbounds nuw i8, ptr %3, i64 8
  %58 = load i32, ptr %57, align 4
  %.sroa.0.0.insert.ext = zext i32 %58 to i64
  %59 = inttoptr i64 %.sroa.0.0.insert.ext to ptr
  %60 = tail call ptr @list_make1_impl(i32 noundef 470, ptr %59) #10
  %61 = getelementptr inbounds nuw i8, ptr %24, i64 56
  store ptr %60, ptr %61, align 8
  %62 = getelementptr inbounds nuw i8, ptr %0, i64 144
  %63 = load ptr, ptr %62, align 8
  %64 = tail call ptr @lappend(ptr noundef %63, ptr noundef nonnull %24) #10
  store ptr %64, ptr %62, align 8
  tail call void @cost_subplan(ptr noundef %1, ptr noundef nonnull %24, ptr noundef nonnull %2) #10
  ret void
}